; Function Attrs: mustprogress nofree norecurse nosync nounwind willreturn memory(argmem: readwrite) uwtable
define noundef signext i8 @_ZNK6icu_7513LocaleMatcher7Builder11copyErrorToER10UErrorCode(ptr nocapture noundef nonnull readonly align 8 dereferenceable(64) %this, ptr nocapture noundef nonnull align 4 dereferenceable(4) %outErrorCode) local_unnamed_addr #0 align 2 {
entry:
  %0 = load i32, ptr %outErrorCode, align 4
  %cmp.i = icmp slt i32 %0, 1
  br i1 %cmp.i, label %if.end, label %return

if.end:                                           ; preds = %entry
  %1 = load i32, ptr %this, align 8
  %cmp.i2 = icmp sgt i32 %1, 0
  br i1 %cmp.i2, label %if.end5, label %return

if.end5:                                          ; preds = %if.end
  store i32 %1, ptr %outErrorCode, align 4
  br label %return

return:                                           ; preds = %if.end, %entry, %if.end5
  %retval.0 = phi i8 [ 1, %if.end5 ], [ 1, %entry ], [ 0, %if.end ]
  ret i8 %retval.0
}